target datalayout = "e-m:e-p270:32:32-p271:32:32-p272:64:64-i64:64-i128:128-f80:128-n8:16:32:64-S128"
target triple = "x86_64-pc-linux-gnu"

%struct._cmsContext_struct = type { ptr, ptr, [16 x ptr], %struct._cmsMemPluginChunkType }
%struct._cmsMemPluginChunkType = type { ptr, ptr, ptr, ptr, ptr, ptr }
%union.pthread_mutex_t = type { %struct.__pthread_mutex_s }
%struct.__pthread_mutex_s = type { i32, i32, i32, i32, i32, i16, i16, %struct.__pthread_internal_list }
%struct.__pthread_internal_list = type { ptr, ptr }

@.str = private unnamed_addr constant [28 x i8] c"NULL memory pool on context\00", align 1
@_cmsContextPoolHeadMutex = internal global %union.pthread_mutex_t zeroinitializer, align 8
@_cmsContextPoolHead = internal global ptr null, align 8

; Function Attrs: nounwind uwtable
define internal i32 @_cmsLeaveCriticalSectionPrimitive(ptr noundef %0) #0 {
  %2 = alloca ptr, align 8
  store ptr %0, ptr %2, align 8
  %3 = load ptr, ptr %2, align 8
  %4 = call i32 @pthread_mutex_unlock(ptr noundef %3) #8
  ret i32 %4
}

; Function Attrs: nounwind uwtable
define internal i32 @_cmsEnterCriticalSectionPrimitive(ptr noundef %0) #0 {
  %2 = alloca ptr, align 8
  store ptr %0, ptr %2, align 8
  %3 = load ptr, ptr %2, align 8
  %4 = call i32 @pthread_mutex_lock(ptr noundef %3) #8
  ret i32 %4
}

; Function Attrs: nounwind uwtable
define internal i32 @InitContextMutex() #0 {
  ret i32 1
}

; Function Attrs: nounwind uwtable
define hidden ptr @_cmsGetContext(ptr noundef %0) #0 {
  %2 = alloca ptr, align 8
  %3 = alloca ptr, align 8
  %4 = alloca ptr, align 8
  %5 = alloca ptr, align 8
  store ptr %0, ptr %3, align 8
  %6 = load ptr, ptr %3, align 8
  store ptr %6, ptr %4, align 8
  %7 = load ptr, ptr %4, align 8
  %8 = icmp eq ptr %7, null
  br i1 %8, label %9, label %10

9:                                                ; preds = %1
  store ptr @globalContext, ptr %2, align 8
  br label %31

10:                                               ; preds = %1
  %11 = call i32 @InitContextMutex()
  %12 = call i32 @_cmsEnterCriticalSectionPrimitive(ptr noundef @_cmsContextPoolHeadMutex)
  %13 = load ptr, ptr @_cmsContextPoolHead, align 8
  store ptr %13, ptr %5, align 8
  br label %14

14:                                               ; preds = %25, %10
  %15 = load ptr, ptr %5, align 8
  %16 = icmp ne ptr %15, null
  br i1 %16, label %17, label %29

17:                                               ; preds = %14
  %18 = load ptr, ptr %4, align 8
  %19 = load ptr, ptr %5, align 8
  %20 = icmp eq ptr %18, %19
  br i1 %20, label %21, label %24

21:                                               ; preds = %17
  %22 = call i32 @_cmsLeaveCriticalSectionPrimitive(ptr noundef @_cmsContextPoolHeadMutex)
  %23 = load ptr, ptr %5, align 8
  store ptr %23, ptr %2, align 8
  br label %31

24:                                               ; preds = %17
  br label %25

25:                                               ; preds = %24
  %26 = load ptr, ptr %5, align 8
  %27 = getelementptr inbounds %struct._cmsContext_struct, ptr %26, i32 0, i32 0
  %28 = load ptr, ptr %27, align 8
  store ptr %28, ptr %5, align 8
  br label %14, !llvm.loop !10

29:                                               ; preds = %14
  %30 = call i32 @_cmsLeaveCriticalSectionPrimitive(ptr noundef @_cmsContextPoolHeadMutex)
  store ptr @globalContext, ptr %2, align 8
  br label %31

31:                                               ; preds = %29, %21, %9
  %32 = load ptr, ptr %2, align 8
  ret ptr %32
}

; Function Attrs: nounwind uwtable
define hidden ptr @_cmsPluginMalloc(ptr noundef %0, i32 noundef %1) #0 {
  %3 = alloca ptr, align 8
  %4 = alloca ptr, align 8
  %5 = alloca i32, align 4
  %6 = alloca ptr, align 8
  store ptr %0, ptr %4, align 8
  store i32 %1, ptr %5, align 4
  %7 = load ptr, ptr %4, align 8
  %8 = call ptr @_cmsGetContext(ptr noundef %7)
  store ptr %8, ptr %6, align 8
  %9 = load ptr, ptr %6, align 8
  %10 = getelementptr inbounds %struct._cmsContext_struct, ptr %9, i32 0, i32 1
  %11 = load ptr, ptr %10, align 8
  %12 = icmp eq ptr %11, null
  br i1 %12, label %13, label %29

13:                                               ; preds = %2
  %14 = load ptr, ptr %4, align 8
  %15 = icmp eq ptr %14, null
  br i1 %15, label %16, label %26

16:                                               ; preds = %13
  %17 = call ptr @_cmsCreateSubAlloc(ptr noundef null, i32 noundef 2048)
  %18 = load ptr, ptr %6, align 8
  %19 = getelementptr inbounds %struct._cmsContext_struct, ptr %18, i32 0, i32 1
  store ptr %17, ptr %19, align 8
  %20 = load ptr, ptr %6, align 8
  %21 = getelementptr inbounds %struct._cmsContext_struct, ptr %20, i32 0, i32 1
  %22 = load ptr, ptr %21, align 8
  %23 = icmp eq ptr %22, null
  br i1 %23, label %24, label %25

24:                                               ; preds = %16
  store ptr null, ptr %3, align 8
  br label %35

25:                                               ; preds = %16
  br label %28

26:                                               ; preds = %13
  %27 = load ptr, ptr %4, align 8
  call void (ptr, i32, ptr, ...) @cmsSignalError(ptr noundef %27, i32 noundef 12, ptr noundef @.str)
  store ptr null, ptr %3, align 8
  br label %35

28:                                               ; preds = %25
  br label %29

29:                                               ; preds = %28, %2
  %30 = load ptr, ptr %6, align 8
  %31 = getelementptr inbounds %struct._cmsContext_struct, ptr %30, i32 0, i32 1
  %32 = load ptr, ptr %31, align 8
  %33 = load i32, ptr %5, align 4
  %34 = call ptr @_cmsSubAlloc(ptr noundef %32, i32 noundef %33)
  store ptr %34, ptr %3, align 8
  br label %35

35:                                               ; preds = %29, %26, %24
  %36 = load ptr, ptr %3, align 8
  ret ptr %36
}