; Function Attrs: nounwind uwtable
define hidden ptr @_cmsPluginMalloc(ptr noundef %0, i32 noundef %1) local_unnamed_addr #2 {
  %3 = icmp eq ptr %0, null
  br i1 %3, label %_cmsGetContext.exit.thread, label %4

4:                                                ; preds = %2
  %5 = tail call i32 @pthread_mutex_lock(ptr noundef nonnull @_cmsContextPoolHeadMutex) #12
  br label %6

6:                                                ; preds = %7, %4
  %.0.in.i = phi ptr [ @_cmsContextPoolHead, %4 ], [ %.0.i, %7 ]
  %.0.i = load ptr, ptr %.0.in.i, align 8
  %.not.i = icmp eq ptr %.0.i, null
  br i1 %.not.i, label %_cmsGetContext.exit, label %7

7:                                                ; preds = %6
  %8 = icmp eq ptr %.0.i, %0
  br i1 %8, label %_cmsGetContext.exit, label %6, !llvm.loop !10

_cmsGetContext.exit:                              ; preds = %6, %7
  %.08.ph.i = phi ptr [ %.0.i, %7 ], [ @globalContext, %6 ]
  %9 = tail call i32 @pthread_mutex_unlock(ptr noundef nonnull @_cmsContextPoolHeadMutex) #12
  %10 = getelementptr inbounds i8, ptr %.08.ph.i, i64 8
  %11 = load ptr, ptr %10, align 8
  %12 = icmp eq ptr %11, null
  br i1 %12, label %17, label %18

_cmsGetContext.exit.thread:                       ; preds = %2
  %13 = load ptr, ptr getelementptr inbounds (i8, ptr @globalContext, i64 8), align 8
  %14 = icmp eq ptr %13, null
  br i1 %14, label %.thread, label %18

.thread:                                          ; preds = %_cmsGetContext.exit.thread
  %15 = tail call ptr @_cmsCreateSubAlloc(ptr noundef null, i32 noundef 2048) #12
  store ptr %15, ptr getelementptr inbounds (i8, ptr @globalContext, i64 8), align 8
  %16 = icmp eq ptr %15, null
  br i1 %16, label %21, label %18

17:                                               ; preds = %_cmsGetContext.exit
  tail call void (ptr, i32, ptr, ...) @cmsSignalError(ptr noundef nonnull %0, i32 noundef 12, ptr noundef nonnull @.str) #12
  br label %21

18:                                               ; preds = %_cmsGetContext.exit.thread, %.thread, %_cmsGetContext.exit
  %19 = phi ptr [ %13, %_cmsGetContext.exit.thread ], [ %15, %.thread ], [ %11, %_cmsGetContext.exit ]
  %20 = tail call ptr @_cmsSubAlloc(ptr noundef nonnull %19, i32 noundef %1) #12
  br label %21

21:                                               ; preds = %.thread, %18, %17
  %.0 = phi ptr [ %20, %18 ], [ null, %17 ], [ null, %.thread ]
  ret ptr %.0
}